; Function Attrs: mustprogress nounwind uwtable
define internal fastcc void @_ZN12_GLOBAL__N_122UniquifierDenseMapInfo11getEmptyKeyEv(ptr dead_on_unwind noalias nonnull writable align 8 %0) unnamed_addr #0 align 2 {
  %2 = getelementptr inbounds i8, ptr %0, i64 16
  tail call void @_ZN4llvm15SmallVectorBaseIjEC2EPvm(ptr noundef nonnull align 8 dereferenceable(16) %0, ptr noundef nonnull %2, i64 noundef 4) #21
  %3 = tail call noundef i64 @_ZNK4llvm15SmallVectorBaseIjE4sizeEv(ptr noundef nonnull align 8 dereferenceable(16) %0) #21
  %4 = add i64 %3, 1
  %5 = tail call noundef i64 @_ZNK4llvm15SmallVectorBaseIjE8capacityEv(ptr noundef nonnull align 8 dereferenceable(16) %0) #21
  %.not.i.i.i = icmp ugt i64 %4, %5
  br i1 %.not.i.i.i, label %6, label %_ZN4llvm23SmallVectorTemplateBaseIPKNS_4SCEVELb1EE9push_backES3_.exit

6:                                                ; preds = %1
  tail call void @_ZN4llvm15SmallVectorBaseIjE8grow_podEPvmm(ptr noundef nonnull align 8 dereferenceable(16) %0, ptr noundef nonnull %2, i64 noundef %4, i64 noundef 8) #21
  br label %_ZN4llvm23SmallVectorTemplateBaseIPKNS_4SCEVELb1EE9push_backES3_.exit

_ZN4llvm23SmallVectorTemplateBaseIPKNS_4SCEVELb1EE9push_backES3_.exit: ; preds = %1, %6
  %7 = load ptr, ptr %0, align 8
  %8 = tail call noundef i64 @_ZNK4llvm15SmallVectorBaseIjE4sizeEv(ptr noundef nonnull align 8 dereferenceable(16) %0) #21
  %9 = getelementptr inbounds ptr, ptr %7, i64 %8
  store i64 -1, ptr %9, align 1
  %10 = tail call noundef i64 @_ZNK4llvm15SmallVectorBaseIjE4sizeEv(ptr noundef nonnull align 8 dereferenceable(16) %0) #21
  %11 = add i64 %10, 1
  tail call void @_ZN4llvm15SmallVectorBaseIjE8set_sizeEm(ptr noundef nonnull align 8 dereferenceable(16) %0, i64 noundef %11) #21
  ret void
}